target datalayout = "e-m:e-p270:32:32-p271:32:32-p272:64:64-i64:64-i128:128-f80:128-n8:16:32:64-S128"
target triple = "x86_64-pc-linux-gnu"

%struct.archive_read = type { %struct.archive, ptr, i32, i64, i64, %struct.archive_read_client, [16 x %struct.archive_read_filter_bidder], ptr, i32, i64, i32, i32, [16 x %struct.archive_format_descriptor], ptr, ptr, ptr, %struct.anon }
%struct.archive = type { i32, i32, ptr, i32, ptr, i32, i32, ptr, %struct.archive_string, ptr, i32, i32, ptr, ptr, i64, i64, i64, i8, i64 }
%struct.archive_string = type { ptr, i64, i64 }
%struct.archive_read_client = type { ptr, ptr, ptr, ptr, ptr, ptr, i32, i32, i64, ptr }
%struct.archive_read_filter_bidder = type { ptr, ptr, ptr }
%struct.archive_format_descriptor = type { ptr, ptr, ptr, ptr, ptr, ptr, ptr, ptr, ptr, ptr, ptr }
%struct.anon = type { ptr, ptr, i32, ptr, ptr }
%struct.archive_read_filter = type { i64, ptr, ptr, ptr, ptr, ptr, ptr, i32, i32, i32, ptr, i64, ptr, i64, ptr, i64, ptr, i64, i8, i8, i8 }

@.str.16 = private unnamed_addr constant [23 x i8] c"archive_read_data_skip\00", align 1
@.str.28 = private unnamed_addr constant [25 x i8] c"archive_read_next_header\00", align 1
@.str.29 = private unnamed_addr constant [23 x i8] c"Premature end-of-file.\00", align 1

; Function Attrs: nounwind uwtable
define dso_local void @__archive_reset_read_data(ptr noundef %0) #0 {
  %2 = alloca ptr, align 8
  store ptr %0, ptr %2, align 8, !tbaa !31
  %3 = load ptr, ptr %2, align 8, !tbaa !31
  %4 = getelementptr inbounds nuw %struct.archive, ptr %3, i32 0, i32 15
  store i64 0, ptr %4, align 8, !tbaa !97
  %5 = load ptr, ptr %2, align 8, !tbaa !31
  %6 = getelementptr inbounds nuw %struct.archive, ptr %5, i32 0, i32 16
  store i64 0, ptr %6, align 8, !tbaa !98
  %7 = load ptr, ptr %2, align 8, !tbaa !31
  %8 = getelementptr inbounds nuw %struct.archive, ptr %7, i32 0, i32 17
  store i8 0, ptr %8, align 8, !tbaa !100
  %9 = load ptr, ptr %2, align 8, !tbaa !31
  %10 = getelementptr inbounds nuw %struct.archive, ptr %9, i32 0, i32 18
  store i64 0, ptr %10, align 8, !tbaa !101
  %11 = load ptr, ptr %2, align 8, !tbaa !31
  %12 = getelementptr inbounds nuw %struct.archive, ptr %11, i32 0, i32 13
  store ptr null, ptr %12, align 8, !tbaa !99
  %13 = load ptr, ptr %2, align 8, !tbaa !31
  %14 = getelementptr inbounds nuw %struct.archive, ptr %13, i32 0, i32 14
  store i64 0, ptr %14, align 8, !tbaa !96
  ret void
}

; Function Attrs: nounwind uwtable
define dso_local i32 @archive_read_data_skip(ptr noundef %0) #0 {
  %2 = alloca i32, align 4
  %3 = alloca ptr, align 8
  %4 = alloca ptr, align 8
  %5 = alloca i32, align 4
  %6 = alloca ptr, align 8
  %7 = alloca i64, align 8
  %8 = alloca i64, align 8
  %9 = alloca i32, align 4
  %10 = alloca i32, align 4
  store ptr %0, ptr %3, align 8, !tbaa !31
  call void @llvm.lifetime.start.p0(i64 8, ptr %4) #11
  %11 = load ptr, ptr %3, align 8, !tbaa !31
  store ptr %11, ptr %4, align 8, !tbaa !4
  call void @llvm.lifetime.start.p0(i64 4, ptr %5) #11
  call void @llvm.lifetime.start.p0(i64 8, ptr %6) #11
  call void @llvm.lifetime.start.p0(i64 8, ptr %7) #11
  call void @llvm.lifetime.start.p0(i64 8, ptr %8) #11
  br label %12

12:                                               ; preds = %1
  call void @llvm.lifetime.start.p0(i64 4, ptr %9) #11
  %13 = load ptr, ptr %3, align 8, !tbaa !31
  %14 = call i32 @__archive_check_magic(ptr noundef %13, i32 noundef 14594245, i32 noundef 4, ptr noundef @.str.16)
  store i32 %14, ptr %9, align 4, !tbaa !38
  %15 = load i32, ptr %9, align 4, !tbaa !38
  %16 = icmp eq i32 %15, -30
  br i1 %16, label %17, label %18

17:                                               ; preds = %12
  store i32 -30, ptr %2, align 4
  store i32 1, ptr %10, align 4
  br label %19

18:                                               ; preds = %12
  store i32 0, ptr %10, align 4
  br label %19

19:                                               ; preds = %18, %17
  call void @llvm.lifetime.end.p0(i64 4, ptr %9) #11
  %20 = load i32, ptr %10, align 4
  switch i32 %20, label %55 [
    i32 0, label %21
  ]

21:                                               ; preds = %19
  br label %22

22:                                               ; preds = %21
  br label %23

23:                                               ; preds = %22
  %24 = load ptr, ptr %4, align 8, !tbaa !4
  %25 = getelementptr inbounds nuw %struct.archive_read, ptr %24, i32 0, i32 13
  %26 = load ptr, ptr %25, align 8, !tbaa !63
  %27 = getelementptr inbounds nuw %struct.archive_format_descriptor, ptr %26, i32 0, i32 6
  %28 = load ptr, ptr %27, align 8, !tbaa !103
  %29 = icmp ne ptr %28, null
  br i1 %29, label %30, label %38

30:                                               ; preds = %23
  %31 = load ptr, ptr %4, align 8, !tbaa !4
  %32 = getelementptr inbounds nuw %struct.archive_read, ptr %31, i32 0, i32 13
  %33 = load ptr, ptr %32, align 8, !tbaa !63
  %34 = getelementptr inbounds nuw %struct.archive_format_descriptor, ptr %33, i32 0, i32 6
  %35 = load ptr, ptr %34, align 8, !tbaa !103
  %36 = load ptr, ptr %4, align 8, !tbaa !4
  %37 = call i32 %35(ptr noundef %36)
  store i32 %37, ptr %5, align 4, !tbaa !38
  br label %46

38:                                               ; preds = %23
  br label %39

39:                                               ; preds = %44, %38
  %40 = load ptr, ptr %4, align 8, !tbaa !4
  %41 = getelementptr inbounds nuw %struct.archive_read, ptr %40, i32 0, i32 0
  %42 = call i32 @archive_read_data_block(ptr noundef %41, ptr noundef %6, ptr noundef %7, ptr noundef %8)
  store i32 %42, ptr %5, align 4, !tbaa !38
  %43 = icmp eq i32 %42, 0
  br i1 %43, label %44, label %45

44:                                               ; preds = %39
  br label %39, !llvm.loop !104

45:                                               ; preds = %39
  br label %46

46:                                               ; preds = %45, %30
  %47 = load i32, ptr %5, align 4, !tbaa !38
  %48 = icmp eq i32 %47, 1
  br i1 %48, label %49, label %50

49:                                               ; preds = %46
  store i32 0, ptr %5, align 4, !tbaa !38
  br label %50

50:                                               ; preds = %49, %46
  %51 = load ptr, ptr %4, align 8, !tbaa !4
  %52 = getelementptr inbounds nuw %struct.archive_read, ptr %51, i32 0, i32 0
  %53 = getelementptr inbounds nuw %struct.archive, ptr %52, i32 0, i32 1
  store i32 2, ptr %53, align 4, !tbaa !27
  %54 = load i32, ptr %5, align 4, !tbaa !38
  store i32 %54, ptr %2, align 4
  store i32 1, ptr %10, align 4
  br label %55

55:                                               ; preds = %50, %19
  call void @llvm.lifetime.end.p0(i64 8, ptr %8) #11
  call void @llvm.lifetime.end.p0(i64 8, ptr %7) #11
  call void @llvm.lifetime.end.p0(i64 8, ptr %6) #11
  call void @llvm.lifetime.end.p0(i64 4, ptr %5) #11
  call void @llvm.lifetime.end.p0(i64 8, ptr %4) #11
  %56 = load i32, ptr %2, align 4
  ret i32 %56
}

; Function Attrs: nounwind uwtable
define internal i32 @_archive_read_next_header2(ptr noundef %0, ptr noundef %1) #0 {
  %3 = alloca i32, align 4
  %4 = alloca ptr, align 8
  %5 = alloca ptr, align 8
  %6 = alloca ptr, align 8
  %7 = alloca i32, align 4
  %8 = alloca i32, align 4
  %9 = alloca i32, align 4
  %10 = alloca i32, align 4
  store ptr %0, ptr %4, align 8, !tbaa !31
  store ptr %1, ptr %5, align 8, !tbaa !90
  call void @llvm.lifetime.start.p0(i64 8, ptr %6) #11
  %11 = load ptr, ptr %4, align 8, !tbaa !31
  store ptr %11, ptr %6, align 8, !tbaa !4
  call void @llvm.lifetime.start.p0(i64 4, ptr %7) #11
  store i32 0, ptr %7, align 4, !tbaa !38
  call void @llvm.lifetime.start.p0(i64 4, ptr %8) #11
  br label %12

12:                                               ; preds = %2
  call void @llvm.lifetime.start.p0(i64 4, ptr %9) #11
  %13 = load ptr, ptr %4, align 8, !tbaa !31
  %14 = call i32 @__archive_check_magic(ptr noundef %13, i32 noundef 14594245, i32 noundef 6, ptr noundef @.str.28)
  store i32 %14, ptr %9, align 4, !tbaa !38
  %15 = load i32, ptr %9, align 4, !tbaa !38
  %16 = icmp eq i32 %15, -30
  br i1 %16, label %17, label %18

17:                                               ; preds = %12
  store i32 -30, ptr %3, align 4
  store i32 1, ptr %10, align 4
  br label %19

18:                                               ; preds = %12
  store i32 0, ptr %10, align 4
  br label %19

19:                                               ; preds = %18, %17
  call void @llvm.lifetime.end.p0(i64 4, ptr %9) #11
  %20 = load i32, ptr %10, align 4
  switch i32 %20, label %115 [
    i32 0, label %21
  ]

21:                                               ; preds = %19
  br label %22

22:                                               ; preds = %21
  br label %23

23:                                               ; preds = %22
  %24 = load ptr, ptr %5, align 8, !tbaa !90
  %25 = call ptr @archive_entry_clear(ptr noundef %24)
  %26 = load ptr, ptr %6, align 8, !tbaa !4
  %27 = getelementptr inbounds nuw %struct.archive_read, ptr %26, i32 0, i32 0
  call void @archive_clear_error(ptr noundef %27)
  %28 = load ptr, ptr %6, align 8, !tbaa !4
  %29 = getelementptr inbounds nuw %struct.archive_read, ptr %28, i32 0, i32 0
  %30 = getelementptr inbounds nuw %struct.archive, ptr %29, i32 0, i32 1
  %31 = load i32, ptr %30, align 4, !tbaa !27
  %32 = icmp eq i32 %31, 4
  br i1 %32, label %33, label %53

33:                                               ; preds = %23
  %34 = load ptr, ptr %6, align 8, !tbaa !4
  %35 = getelementptr inbounds nuw %struct.archive_read, ptr %34, i32 0, i32 0
  %36 = call i32 @archive_read_data_skip(ptr noundef %35)
  store i32 %36, ptr %7, align 4, !tbaa !38
  %37 = load i32, ptr %7, align 4, !tbaa !38
  %38 = icmp eq i32 %37, 1
  br i1 %38, label %39, label %42

39:                                               ; preds = %33
  %40 = load ptr, ptr %6, align 8, !tbaa !4
  %41 = getelementptr inbounds nuw %struct.archive_read, ptr %40, i32 0, i32 0
  call void (ptr, i32, ptr, ...) @archive_set_error(ptr noundef %41, i32 noundef 5, ptr noundef @.str.29)
  br label %42

42:                                               ; preds = %39, %33
  %43 = load i32, ptr %7, align 4, !tbaa !38
  %44 = icmp eq i32 %43, 1
  br i1 %44, label %48, label %45

45:                                               ; preds = %42
  %46 = load i32, ptr %7, align 4, !tbaa !38
  %47 = icmp eq i32 %46, -30
  br i1 %47, label %48, label %52

48:                                               ; preds = %45, %42
  %49 = load ptr, ptr %6, align 8, !tbaa !4
  %50 = getelementptr inbounds nuw %struct.archive_read, ptr %49, i32 0, i32 0
  %51 = getelementptr inbounds nuw %struct.archive, ptr %50, i32 0, i32 1
  store i32 32768, ptr %51, align 4, !tbaa !27
  store i32 -30, ptr %3, align 4
  store i32 1, ptr %10, align 4
  br label %115

52:                                               ; preds = %45
  br label %53

53:                                               ; preds = %52, %23
  %54 = load ptr, ptr %6, align 8, !tbaa !4
  %55 = getelementptr inbounds nuw %struct.archive_read, ptr %54, i32 0, i32 7
  %56 = load ptr, ptr %55, align 8, !tbaa !59
  %57 = getelementptr inbounds nuw %struct.archive_read_filter, ptr %56, i32 0, i32 0
  %58 = load i64, ptr %57, align 8, !tbaa !82
  %59 = load ptr, ptr %6, align 8, !tbaa !4
  %60 = getelementptr inbounds nuw %struct.archive_read, ptr %59, i32 0, i32 9
  store i64 %58, ptr %60, align 8, !tbaa !92
  %61 = load ptr, ptr %4, align 8, !tbaa !31
  %62 = getelementptr inbounds nuw %struct.archive, ptr %61, i32 0, i32 5
  %63 = load i32, ptr %62, align 8, !tbaa !147
  %64 = add nsw i32 %63, 1
  store i32 %64, ptr %62, align 8, !tbaa !147
  %65 = load ptr, ptr %6, align 8, !tbaa !4
  %66 = getelementptr inbounds nuw %struct.archive_read, ptr %65, i32 0, i32 13
  %67 = load ptr, ptr %66, align 8, !tbaa !63
  %68 = getelementptr inbounds nuw %struct.archive_format_descriptor, ptr %67, i32 0, i32 4
  %69 = load ptr, ptr %68, align 8, !tbaa !108
  %70 = load ptr, ptr %6, align 8, !tbaa !4
  %71 = load ptr, ptr %5, align 8, !tbaa !90
  %72 = call i32 %69(ptr noundef %70, ptr noundef %71)
  store i32 %72, ptr %8, align 4, !tbaa !38
  %73 = load i32, ptr %8, align 4, !tbaa !38
  switch i32 %73, label %94 [
    i32 1, label %74
    i32 0, label %82
    i32 -20, label %86
    i32 -10, label %94
    i32 -30, label %90
  ]

74:                                               ; preds = %53
  %75 = load ptr, ptr %6, align 8, !tbaa !4
  %76 = getelementptr inbounds nuw %struct.archive_read, ptr %75, i32 0, i32 0
  %77 = getelementptr inbounds nuw %struct.archive, ptr %76, i32 0, i32 1
  store i32 16, ptr %77, align 4, !tbaa !27
  %78 = load ptr, ptr %4, align 8, !tbaa !31
  %79 = getelementptr inbounds nuw %struct.archive, ptr %78, i32 0, i32 5
  %80 = load i32, ptr %79, align 8, !tbaa !147
  %81 = add nsw i32 %80, -1
  store i32 %81, ptr %79, align 8, !tbaa !147
  br label %94

82:                                               ; preds = %53
  %83 = load ptr, ptr %6, align 8, !tbaa !4
  %84 = getelementptr inbounds nuw %struct.archive_read, ptr %83, i32 0, i32 0
  %85 = getelementptr inbounds nuw %struct.archive, ptr %84, i32 0, i32 1
  store i32 4, ptr %85, align 4, !tbaa !27
  br label %94

86:                                               ; preds = %53
  %87 = load ptr, ptr %6, align 8, !tbaa !4
  %88 = getelementptr inbounds nuw %struct.archive_read, ptr %87, i32 0, i32 0
  %89 = getelementptr inbounds nuw %struct.archive, ptr %88, i32 0, i32 1
  store i32 4, ptr %89, align 4, !tbaa !27
  br label %94

90:                                               ; preds = %53
  %91 = load ptr, ptr %6, align 8, !tbaa !4
  %92 = getelementptr inbounds nuw %struct.archive_read, ptr %91, i32 0, i32 0
  %93 = getelementptr inbounds nuw %struct.archive, ptr %92, i32 0, i32 1
  store i32 32768, ptr %93, align 4, !tbaa !27
  br label %94

94:                                               ; preds = %53, %90, %53, %86, %82, %74
  %95 = load ptr, ptr %6, align 8, !tbaa !4
  %96 = getelementptr inbounds nuw %struct.archive_read, ptr %95, i32 0, i32 0
  call void @__archive_reset_read_data(ptr noundef %96)
  %97 = load ptr, ptr %6, align 8, !tbaa !4
  %98 = getelementptr inbounds nuw %struct.archive_read, ptr %97, i32 0, i32 5
  %99 = getelementptr inbounds nuw %struct.archive_read_client, ptr %98, i32 0, i32 7
  %100 = load i32, ptr %99, align 4, !tbaa !89
  %101 = load ptr, ptr %6, align 8, !tbaa !4
  %102 = getelementptr inbounds nuw %struct.archive_read, ptr %101, i32 0, i32 10
  store i32 %100, ptr %102, align 8, !tbaa !148
  %103 = load i32, ptr %8, align 4, !tbaa !38
  %104 = load i32, ptr %7, align 4, !tbaa !38
  %105 = icmp slt i32 %103, %104
  br i1 %105, label %109, label %106

106:                                              ; preds = %94
  %107 = load i32, ptr %8, align 4, !tbaa !38
  %108 = icmp eq i32 %107, 1
  br i1 %108, label %109, label %111

109:                                              ; preds = %106, %94
  %110 = load i32, ptr %8, align 4, !tbaa !38
  br label %113

111:                                              ; preds = %106
  %112 = load i32, ptr %7, align 4, !tbaa !38
  br label %113

113:                                              ; preds = %111, %109
  %114 = phi i32 [ %110, %109 ], [ %112, %111 ]
  store i32 %114, ptr %3, align 4
  store i32 1, ptr %10, align 4
  br label %115

115:                                              ; preds = %113, %48, %19
  call void @llvm.lifetime.end.p0(i64 4, ptr %8) #11
  call void @llvm.lifetime.end.p0(i64 4, ptr %7) #11
  call void @llvm.lifetime.end.p0(i64 8, ptr %6) #11
  %116 = load i32, ptr %3, align 4
  ret i32 %116
}