; Function Attrs: nounwind uwtable
define internal noundef i32 @_archive_read_next_header2(ptr noundef %0, ptr noundef %1) #0 {
  %3 = alloca ptr, align 8
  %4 = alloca i64, align 8
  %5 = alloca i64, align 8
  %6 = tail call i32 @__archive_check_magic(ptr noundef %0, i32 noundef 14594245, i32 noundef 6, ptr noundef nonnull @.str.28) #15
  %.not = icmp eq i32 %6, -30
  br i1 %.not, label %51, label %7

7:                                                ; preds = %2
  %8 = tail call ptr @archive_entry_clear(ptr noundef %1) #15
  tail call void @archive_clear_error(ptr noundef %0) #15
  %9 = getelementptr inbounds nuw i8, ptr %0, i64 4
  %10 = load i32, ptr %9, align 4, !tbaa !25
  %11 = icmp eq i32 %10, 4
  br i1 %11, label %12, label %archive_read_data_skip.exit.thread

12:                                               ; preds = %7
  call void @llvm.lifetime.start.p0(i64 8, ptr nonnull %3) #15
  call void @llvm.lifetime.start.p0(i64 8, ptr nonnull %4) #15
  call void @llvm.lifetime.start.p0(i64 8, ptr nonnull %5) #15
  %13 = tail call i32 @__archive_check_magic(ptr noundef nonnull %0, i32 noundef 14594245, i32 noundef 4, ptr noundef nonnull @.str.16) #15
  %.not.i = icmp eq i32 %13, -30
  br i1 %.not.i, label %archive_read_data_skip.exit.thread40, label %14

archive_read_data_skip.exit.thread40:             ; preds = %12
  call void @llvm.lifetime.end.p0(i64 8, ptr nonnull %5) #15
  call void @llvm.lifetime.end.p0(i64 8, ptr nonnull %4) #15
  call void @llvm.lifetime.end.p0(i64 8, ptr nonnull %3) #15
  br label %23

14:                                               ; preds = %12
  %15 = getelementptr inbounds nuw i8, ptr %0, i64 2072
  %16 = load ptr, ptr %15, align 8, !tbaa !73
  %17 = getelementptr inbounds nuw i8, ptr %16, i64 48
  %18 = load ptr, ptr %17, align 8, !tbaa !95
  %.not15.i = icmp eq ptr %18, null
  br i1 %.not15.i, label %.preheader.i, label %19

19:                                               ; preds = %14
  %20 = tail call i32 %18(ptr noundef nonnull %0) #15
  br label %.loopexit.i

.preheader.i:                                     ; preds = %14, %.preheader.i
  %21 = call i32 @archive_read_data_block(ptr noundef nonnull %0, ptr noundef nonnull %3, ptr noundef nonnull %4, ptr noundef nonnull %5) #15
  %22 = icmp eq i32 %21, 0
  br i1 %22, label %.preheader.i, label %.loopexit.i, !llvm.loop !96

.loopexit.i:                                      ; preds = %.preheader.i, %19
  %.012.i = phi i32 [ %20, %19 ], [ %21, %.preheader.i ]
  store i32 2, ptr %9, align 4, !tbaa !25
  call void @llvm.lifetime.end.p0(i64 8, ptr nonnull %5) #15
  call void @llvm.lifetime.end.p0(i64 8, ptr nonnull %4) #15
  call void @llvm.lifetime.end.p0(i64 8, ptr nonnull %3) #15
  switch i32 %.012.i, label %archive_read_data_skip.exit.thread.fold.split [
    i32 1, label %archive_read_data_skip.exit.thread
    i32 -30, label %23
  ]

23:                                               ; preds = %.loopexit.i, %archive_read_data_skip.exit.thread40
  store i32 32768, ptr %9, align 4, !tbaa !25
  br label %51

archive_read_data_skip.exit.thread.fold.split:    ; preds = %.loopexit.i
  br label %archive_read_data_skip.exit.thread

archive_read_data_skip.exit.thread:               ; preds = %.loopexit.i, %archive_read_data_skip.exit.thread.fold.split, %7
  %.037 = phi i32 [ 0, %7 ], [ 0, %.loopexit.i ], [ %.012.i, %archive_read_data_skip.exit.thread.fold.split ]
  %24 = getelementptr inbounds nuw i8, ptr %0, i64 632
  %25 = load ptr, ptr %24, align 8, !tbaa !53
  %26 = load i64, ptr %25, align 8, !tbaa !76
  %27 = getelementptr inbounds nuw i8, ptr %0, i64 648
  store i64 %26, ptr %27, align 8, !tbaa !84
  %28 = getelementptr inbounds nuw i8, ptr %0, i64 32
  %29 = load i32, ptr %28, align 8, !tbaa !132
  %30 = add nsw i32 %29, 1
  store i32 %30, ptr %28, align 8, !tbaa !132
  %31 = getelementptr inbounds nuw i8, ptr %0, i64 2072
  %32 = load ptr, ptr %31, align 8, !tbaa !73
  %33 = getelementptr inbounds nuw i8, ptr %32, i64 32
  %34 = load ptr, ptr %33, align 8, !tbaa !100
  %35 = call i32 %34(ptr noundef nonnull %0, ptr noundef %1) #15
  switch i32 %35, label %42 [
    i32 1, label %36
    i32 0, label %39
    i32 -20, label %40
    i32 -30, label %41
  ]

36:                                               ; preds = %archive_read_data_skip.exit.thread
  store i32 16, ptr %9, align 4, !tbaa !25
  %37 = load i32, ptr %28, align 8, !tbaa !132
  %38 = add nsw i32 %37, -1
  store i32 %38, ptr %28, align 8, !tbaa !132
  br label %42

39:                                               ; preds = %archive_read_data_skip.exit.thread
  store i32 4, ptr %9, align 4, !tbaa !25
  br label %42

40:                                               ; preds = %archive_read_data_skip.exit.thread
  store i32 4, ptr %9, align 4, !tbaa !25
  br label %42

41:                                               ; preds = %archive_read_data_skip.exit.thread
  store i32 32768, ptr %9, align 4, !tbaa !25
  br label %42

42:                                               ; preds = %41, %40, %39, %36, %archive_read_data_skip.exit.thread
  %43 = getelementptr inbounds nuw i8, ptr %0, i64 136
  store i64 0, ptr %43, align 8, !tbaa !93
  %44 = getelementptr inbounds nuw i8, ptr %0, i64 96
  call void @llvm.memset.p0.i64(ptr noundef nonnull align 8 dereferenceable(33) %44, i8 0, i64 33, i1 false)
  %45 = getelementptr inbounds nuw i8, ptr %0, i64 228
  %46 = load i32, ptr %45, align 4, !tbaa !78
  %47 = getelementptr inbounds nuw i8, ptr %0, i64 656
  store i32 %46, ptr %47, align 8, !tbaa !133
  %48 = icmp eq i32 %35, 1
  %49 = call i32 @llvm.smin.i32(i32 %35, i32 %.037)
  %50 = select i1 %48, i32 1, i32 %49
  br label %51

51:                                               ; preds = %2, %42, %23
  %.1 = phi i32 [ -30, %23 ], [ %50, %42 ], [ -30, %2 ]
  ret i32 %.1
}